Certificate:
    Data:
        Version: 3 (0x2)
        Serial Number: 1 (0x1)
    Signature Algorithm: sha256WithRSAEncryption
        Issuer: C=US, ST=CA, L=SanFrancisco, O=Fort-Funston, OU=MyOrganizationalUnit, CN=Fort-Funston CA/name=EasyRSA/emailAddress=me@myhost.mydomain
        Validity
            Not Before: Feb 23 08:52:43 2015 GMT
            Not After : Feb 20 08:52:43 2025 GMT
        Subject: C=US, ST=CA, L=SanFrancisco, O=Fort-Funston, OU=MyOrganizationalUnit, CN=server/name=EasyRSA/emailAddress=me@myhost.mydomain
        Subject Public Key Info:
            Public Key Algorithm: rsaEncryption
                Public-Key: (2048 bit)
                Modulus:
                    00:d4:56:f8:cf:36:8e:7d:32:f7:c8:e9:19:1d:1f:
                    62:ff:71:ae:0e:ba:02:5d:88:c4:22:79:b2:da:ad:
                    c7:b7:e9:c4:10:e6:95:43:75:c8:9a:f5:e6:54:31:
                    50:21:ba:69:69:69:16:29:49:69:07:b7:73:f3:f6:
                    cd:94:c9:23:a9:10:c0:eb:3c:6e:ff:11:4d:2b:fe:
                    1b:dd:14:70:33:5d:2d:dc:12:7e:77:63:d5:68:87:
                    99:62:91:06:40:91:86:a4:9b:7f:ae:ce:d4:b1:26:
                    3f:77:31:09:af:16:02:3b:2d:0b:55:10:b7:6c:4a:
                    63:cc:1b:bd:df:5c:44:97:25:2e:4e:a6:04:89:49:
                    5e:68:7a:9d:0d:b9:d4:42:e0:53:29:da:79:b5:d9:
                    8c:0f:b0:a3:0c:ca:db:c5:34:1e:54:e8:cb:ab:b4:
                    4e:e6:c4:d6:4c:73:1e:93:64:50:f0:bd:7d:89:62:
                    8b:f8:29:8f:26:9f:5b:0f:3f:0a:32:97:87:45:ac:
                    77:ad:8f:37:06:4d:83:7a:17:ec:ea:75:e3:a2:30:
                    49:a9:c3:24:47:ab:ec:ee:13:e2:14:78:aa:71:70:
                    14:c1:a6:b7:4b:aa:56:75:56:c7:08:fb:c6:32:f6:
                    e1:d1:01:02:cc:69:cb:ab:4a:32:4a:a8:dc:14:d1:
                    63:ef
                Exponent: 65537 (0x10001)
        X509v3 extensions:
            X509v3 Basic Constraints: 
                CA:FALSE
            Netscape Cert Type: 
                SSL Server
            Netscape Comment: 
                Easy-RSA Generated Server Certificate
            X509v3 Subject Key Identifier: 
                EA:A5:60:A7:43:A3:88:C3:43:4B:12:C6:BD:1D:32:84:12:4D:C6:67
            X509v3 Authority Key Identifier: 
                keyid:D6:B5:6D:1F:91:40:80:07:C8:6D:33:D8:A7:3C:36:62:8D:AD:B3:64
                DirName:/C=US/ST=CA/L=SanFrancisco/O=Fort-Funston/OU=MyOrganizationalUnit/CN=Fort-Funston CA/name=EasyRSA/emailAddress=me@myhost.mydomain
                serial:9E:37:81:01:18:EA:E0:27

            X509v3 Extended Key Usage: 
                TLS Web Server Authentication
            X509v3 Key Usage: 
                Digital Signature, Key Encipherment
            X509v3 Subject Alternative Name: 
                DNS:server
    Signature Algorithm: sha256WithRSAEncryption
         a4:3c:be:8b:03:86:f0:48:c2:fd:7f:1c:e8:bc:80:da:7e:1a:
         f0:5b:6d:fb:5d:35:e3:32:ad:9d:d5:8c:89:75:43:73:3b:dd:
         33:88:ee:84:b3:71:f9:17:3b:37:01:3b:ae:26:b8:e9:99:96:
         21:80:72:52:6d:26:e5:3b:ae:71:b0:7b:61:33:ff:31:65:a6:
         72:64:20:d8:41:93:2e:d4:58:17:b7:78:bd:d4:36:42:60:51:
         d1:cf:4f:d9:b9:27:0e:b1:a3:08:c9:cc:ed:cc:15:07:5e:a1:
         4e:79:04:e8:3c:56:1b:4e:f4:a0:14:5f:1f:18:6f:bc:cc:88:
         f8:8f:16:7d:8a:86:1d:dc:a1:a4:d5:7e:31:07:1a:47:f2:ed:
         0d:ad:66:fb:c8:93:f8:43:35:9b:66:38:b7:89:aa:bb:35:49:
         98:08:c9:e1:35:b5:a4:97:c1:65:f2:14:d1:b6:fe:81:b5:46:
         06:48:e8:49:d3:d6:56:83:e7:2f:48:d9:f5:ad:d7:b8:39:c5:
         3b:1d:69:84:b6:be:46:70:2d:25:4a:18:18:33:31:eb:c8:87:
         6a:e1:3c:5f:88:32:e2:b4:dd:88:ea:55:46:d7:73:b5:7d:74:
         16:12:0f:57:9c:eb:65:88:2c:c2:10:08:a3:ba:ad:73:b6:db:
         b7:92:53:2b
-----BEGIN CERTIFICATE-----
MIIFfDCCBGSgAwIBAgIBATANBgkqhkiG9w0BAQsFADCBtjELMAkGA1UEBhMCVVMx
CzAJBgNVBAgTAkNBMRUwEwYDVQQHEwxTYW5GcmFuY2lzY28xFTATBgNVBAoTDEZv
cnQtRnVuc3RvbjEdMBsGA1UECxMUTXlPcmdhbml6YXRpb25hbFVuaXQxGDAWBgNV
BAMTD0ZvcnQtRnVuc3RvbiBDQTEQMA4GA1UEKRMHRWFzeVJTQTEhMB8GCSqGSIb3
DQEJARYSbWVAbXlob3N0Lm15ZG9tYWluMB4XDTE1MDIyMzA4NTI0M1oXDTI1MDIy
MDA4NTI0M1owga0xCzAJBgNVBAYTAlVTMQswCQYDVQQIEwJDQTEVMBMGA1UEBxMM
U2FuRnJhbmNpc2NvMRUwEwYDVQQKEwxGb3J0LUZ1bnN0b24xHTAbBgNVBAsTFE15
T3JnYW5pemF0aW9uYWxVbml0MQ8wDQYDVQQDEwZzZXJ2ZXIxEDAOBgNVBCkTB0Vh
c3lSU0ExITAfBgkqhkiG9w0BCQEWEm1lQG15aG9zdC5teWRvbWFpbjCCASIwDQYJ
KoZIhvcNAQEBBQADggEPADCCAQoCggEBANRW+M82jn0y98jpGR0fYv9xrg66Al2I
xCJ5stqtx7fpxBDmlUN1yJr15lQxUCG6aWlpFilJaQe3c/P2zZTJI6kQwOs8bv8R
TSv+G90UcDNdLdwSfndj1WiHmWKRBkCRhqSbf67O1LEmP3cxCa8WAjstC1UQt2xK
Y8wbvd9cRJclLk6mBIlJXmh6nQ251ELgUynaebXZjA+wowzK28U0HlToy6u0TubE
1kxzHpNkUPC9fYlii/gpjyafWw8/CjKXh0Wsd62PNwZNg3oX7Op146IwSanDJEer
7O4T4hR4qnFwFMGmt0uqVnVWxwj7xjL24dEBAsxpy6tKMkqo3BTRY+8CAwEAAaOC
AZowggGWMAkGA1UdEwQCMAAwEQYJYIZIAYb4QgEBBAQDAgZAMDQGCWCGSAGG+EIB
DQQnFiVFYXN5LVJTQSBHZW5lcmF0ZWQgU2VydmVyIENlcnRpZmljYXRlMB0GA1Ud
DgQWBBTqpWCnQ6OIw0NLEsa9HTKEEk3GZzCB6wYDVR0jBIHjMIHggBTWtW0fkUCA
B8htM9inPDZija2zZKGBvKSBuTCBtjELMAkGA1UEBhMCVVMxCzAJBgNVBAgTAkNB
MRUwEwYDVQQHEwxTYW5GcmFuY2lzY28xFTATBgNVBAoTDEZvcnQtRnVuc3RvbjEd
MBsGA1UECxMUTXlPcmdhbml6YXRpb25hbFVuaXQxGDAWBgNVBAMTD0ZvcnQtRnVu
c3RvbiBDQTEQMA4GA1UEKRMHRWFzeVJTQTEhMB8GCSqGSIb3DQEJARYSbWVAbXlo
b3N0Lm15ZG9tYWluggkAnjeBARjq4CcwEwYDVR0lBAwwCgYIKwYBBQUHAwEwCwYD
VR0PBAQDAgWgMBEGA1UdEQQKMAiCBnNlcnZlcjANBgkqhkiG9w0BAQsFAAOCAQEA
pDy+iwOG8EjC/X8c6LyA2n4a8Ftt+1014zKtndWMiXVDczvdM4juhLNx+Rc7NwE7
ria46ZmWIYByUm0m5TuucbB7YTP/MWWmcmQg2EGTLtRYF7d4vdQ2QmBR0c9P2bkn
DrGjCMnM7cwVB16hTnkE6DxWG070oBRfHxhvvMyI+I8WfYqGHdyhpNV+MQcaR/Lt
Da1m+8iT+EM1m2Y4t4mquzVJmAjJ4TW1pJfBZfIU0bb+gbVGBkjoSdPWVoPnL0jZ
9a3XuDnFOx1phLa+RnAtJUoYGDMx68iHauE8X4gy4rTdiOpVRtdztX10FhIPV5zr
ZYgswhAIo7qtc7bbt5JTKw==
-----END CERTIFICATE-----
